target datalayout = "e-m:e-p270:32:32-p271:32:32-p272:64:64-i64:64-i128:128-f80:128-n8:16:32:64-S128"
target triple = "x86_64-pc-linux-gnu"

%struct.SurfaceDataRasInfo = type { %struct.SurfaceDataBounds, ptr, i32, i32, i32, i32, ptr, ptr, ptr, ptr, ptr, ptr, i32, %union.anon.0 }
%struct.SurfaceDataBounds = type { i32, i32, i32, i32 }
%union.anon.0 = type { ptr, [56 x i8] }

@mul8table = external global [256 x [256 x i8]], align 16

; Function Attrs: nounwind uwtable
define hidden void @Index8GraySrcOverMaskFill(ptr noundef %0, ptr noundef %1, i32 noundef %2, i32 noundef %3, i32 noundef %4, i32 noundef %5, i32 noundef %6, ptr noundef %7, ptr noundef %8, ptr noundef %9) #0 {
  %11 = alloca ptr, align 8
  %12 = alloca ptr, align 8
  %13 = alloca i32, align 4
  %14 = alloca i32, align 4
  %15 = alloca i32, align 4
  %16 = alloca i32, align 4
  %17 = alloca i32, align 4
  %18 = alloca ptr, align 8
  %19 = alloca ptr, align 8
  %20 = alloca ptr, align 8
  %21 = alloca i32, align 4
  %22 = alloca i32, align 4
  %23 = alloca i32, align 4
  %24 = alloca ptr, align 8
  %25 = alloca ptr, align 8
  %26 = alloca ptr, align 8
  %27 = alloca i32, align 4
  %28 = alloca i32, align 4
  %29 = alloca i32, align 4
  %30 = alloca i32, align 4
  %31 = alloca i32, align 4
  %32 = alloca i32, align 4
  %33 = alloca i32, align 4
  %34 = alloca i32, align 4
  %35 = alloca i32, align 4
  %36 = alloca i32, align 4
  %37 = alloca i32, align 4
  %38 = alloca i32, align 4
  %39 = alloca i32, align 4
  %40 = alloca i32, align 4
  store ptr %0, ptr %11, align 8
  store ptr %1, ptr %12, align 8
  store i32 %2, ptr %13, align 4
  store i32 %3, ptr %14, align 4
  store i32 %4, ptr %15, align 4
  store i32 %5, ptr %16, align 4
  store i32 %6, ptr %17, align 4
  store ptr %7, ptr %18, align 8
  store ptr %8, ptr %19, align 8
  store ptr %9, ptr %20, align 8
  %41 = load ptr, ptr %18, align 8
  %42 = getelementptr inbounds %struct.SurfaceDataRasInfo, ptr %41, i32 0, i32 4
  %43 = load i32, ptr %42, align 8
  store i32 %43, ptr %23, align 4
  %44 = load ptr, ptr %11, align 8
  store ptr %44, ptr %24, align 8
  br label %45

45:                                               ; preds = %10
  br label %46

46:                                               ; preds = %45
  %47 = load i32, ptr %17, align 4
  %48 = and i32 %47, 255
  store i32 %48, ptr %29, align 4
  %49 = load i32, ptr %17, align 4
  %50 = ashr i32 %49, 8
  %51 = and i32 %50, 255
  store i32 %51, ptr %28, align 4
  %52 = load i32, ptr %17, align 4
  %53 = ashr i32 %52, 16
  %54 = and i32 %53, 255
  store i32 %54, ptr %27, align 4
  %55 = load i32, ptr %17, align 4
  %56 = ashr i32 %55, 24
  %57 = and i32 %56, 255
  store i32 %57, ptr %21, align 4
  br label %58

58:                                               ; preds = %46
  %59 = load i32, ptr %27, align 4
  %60 = mul nsw i32 77, %59
  %61 = load i32, ptr %28, align 4
  %62 = mul nsw i32 150, %61
  %63 = add nsw i32 %60, %62
  %64 = load i32, ptr %29, align 4
  %65 = mul nsw i32 29, %64
  %66 = add nsw i32 %63, %65
  %67 = add nsw i32 %66, 128
  %68 = sdiv i32 %67, 256
  %69 = trunc i32 %68 to i8
  %70 = zext i8 %69 to i32
  store i32 %70, ptr %22, align 4
  br label %71

71:                                               ; preds = %58
  %72 = load i32, ptr %21, align 4
  %73 = icmp ne i32 %72, 255
  br i1 %73, label %74, label %87

74:                                               ; preds = %71
  %75 = load i32, ptr %21, align 4
  %76 = icmp eq i32 %75, 0
  br i1 %76, label %77, label %78

77:                                               ; preds = %74
  br label %287

78:                                               ; preds = %74
  %79 = load i32, ptr %21, align 4
  %80 = sext i32 %79 to i64
  %81 = getelementptr inbounds [256 x [256 x i8]], ptr @mul8table, i64 0, i64 %80
  %82 = load i32, ptr %22, align 4
  %83 = sext i32 %82 to i64
  %84 = getelementptr inbounds [256 x i8], ptr %81, i64 0, i64 %83
  %85 = load i8, ptr %84, align 1
  %86 = zext i8 %85 to i32
  store i32 %86, ptr %22, align 4
  br label %87

87:                                               ; preds = %78, %71
  %88 = load ptr, ptr %18, align 8
  %89 = getelementptr inbounds %struct.SurfaceDataRasInfo, ptr %88, i32 0, i32 6
  %90 = load ptr, ptr %89, align 8
  store ptr %90, ptr %25, align 8
  %91 = load ptr, ptr %18, align 8
  %92 = getelementptr inbounds %struct.SurfaceDataRasInfo, ptr %91, i32 0, i32 11
  %93 = load ptr, ptr %92, align 8
  store ptr %93, ptr %26, align 8
  %94 = load i32, ptr %15, align 4
  %95 = mul nsw i32 %94, 1
  %96 = load i32, ptr %23, align 4
  %97 = sub nsw i32 %96, %95
  store i32 %97, ptr %23, align 4
  %98 = load ptr, ptr %12, align 8
  %99 = icmp ne ptr %98, null
  br i1 %99, label %100, label %222

100:                                              ; preds = %87
  %101 = load i32, ptr %13, align 4
  %102 = load ptr, ptr %12, align 8
  %103 = sext i32 %101 to i64
  %104 = getelementptr inbounds i8, ptr %102, i64 %103
  store ptr %104, ptr %12, align 8
  %105 = load i32, ptr %15, align 4
  %106 = load i32, ptr %14, align 4
  %107 = sub nsw i32 %106, %105
  store i32 %107, ptr %14, align 4
  br label %108

108:                                              ; preds = %217, %100
  %109 = load i32, ptr %15, align 4
  store i32 %109, ptr %30, align 4
  br label %110

110:                                              ; preds = %200, %108
  %111 = load ptr, ptr %12, align 8
  %112 = getelementptr inbounds i8, ptr %111, i32 1
  store ptr %112, ptr %12, align 8
  %113 = load i8, ptr %111, align 1
  %114 = zext i8 %113 to i32
  store i32 %114, ptr %33, align 4
  %115 = load i32, ptr %33, align 4
  %116 = icmp sgt i32 %115, 0
  br i1 %116, label %117, label %195

117:                                              ; preds = %110
  %118 = load i32, ptr %33, align 4
  %119 = icmp ne i32 %118, 255
  br i1 %119, label %120, label %137

120:                                              ; preds = %117
  %121 = load i32, ptr %33, align 4
  %122 = sext i32 %121 to i64
  %123 = getelementptr inbounds [256 x [256 x i8]], ptr @mul8table, i64 0, i64 %122
  %124 = load i32, ptr %21, align 4
  %125 = sext i32 %124 to i64
  %126 = getelementptr inbounds [256 x i8], ptr %123, i64 0, i64 %125
  %127 = load i8, ptr %126, align 1
  %128 = zext i8 %127 to i32
  store i32 %128, ptr %31, align 4
  %129 = load i32, ptr %33, align 4
  %130 = sext i32 %129 to i64
  %131 = getelementptr inbounds [256 x [256 x i8]], ptr @mul8table, i64 0, i64 %130
  %132 = load i32, ptr %22, align 4
  %133 = sext i32 %132 to i64
  %134 = getelementptr inbounds [256 x i8], ptr %131, i64 0, i64 %133
  %135 = load i8, ptr %134, align 1
  %136 = zext i8 %135 to i32
  store i32 %136, ptr %32, align 4
  br label %140

137:                                              ; preds = %117
  %138 = load i32, ptr %21, align 4
  store i32 %138, ptr %31, align 4
  %139 = load i32, ptr %22, align 4
  store i32 %139, ptr %32, align 4
  br label %140

140:                                              ; preds = %137, %120
  %141 = load i32, ptr %31, align 4
  %142 = icmp ne i32 %141, 255
  br i1 %142, label %143, label %186

143:                                              ; preds = %140
  %144 = load i32, ptr %31, align 4
  %145 = sub nsw i32 255, %144
  store i32 %145, ptr %34, align 4
  store i32 0, ptr %35, align 4
  store i32 255, ptr %35, align 4
  %146 = load i32, ptr %34, align 4
  %147 = sext i32 %146 to i64
  %148 = getelementptr inbounds [256 x [256 x i8]], ptr @mul8table, i64 0, i64 %147
  %149 = load i32, ptr %35, align 4
  %150 = sext i32 %149 to i64
  %151 = getelementptr inbounds [256 x i8], ptr %148, i64 0, i64 %150
  %152 = load i8, ptr %151, align 1
  %153 = zext i8 %152 to i32
  store i32 %153, ptr %35, align 4
  %154 = load i32, ptr %35, align 4
  store i32 %154, ptr %34, align 4
  %155 = load i32, ptr %35, align 4
  %156 = load i32, ptr %31, align 4
  %157 = add nsw i32 %156, %155
  store i32 %157, ptr %31, align 4
  %158 = load i32, ptr %34, align 4
  %159 = icmp ne i32 %158, 0
  br i1 %159, label %160, label %185

160:                                              ; preds = %143
  %161 = load ptr, ptr %25, align 8
  %162 = load ptr, ptr %24, align 8
  %163 = getelementptr inbounds i8, ptr %162, i64 0
  %164 = load i8, ptr %163, align 1
  %165 = zext i8 %164 to i64
  %166 = getelementptr inbounds i32, ptr %161, i64 %165
  %167 = load i32, ptr %166, align 4
  %168 = trunc i32 %167 to i8
  %169 = zext i8 %168 to i32
  store i32 %169, ptr %36, align 4
  %170 = load i32, ptr %34, align 4
  %171 = icmp ne i32 %170, 255
  br i1 %171, label %172, label %181

172:                                              ; preds = %160
  %173 = load i32, ptr %34, align 4
  %174 = sext i32 %173 to i64
  %175 = getelementptr inbounds [256 x [256 x i8]], ptr @mul8table, i64 0, i64 %174
  %176 = load i32, ptr %36, align 4
  %177 = sext i32 %176 to i64
  %178 = getelementptr inbounds [256 x i8], ptr %175, i64 0, i64 %177
  %179 = load i8, ptr %178, align 1
  %180 = zext i8 %179 to i32
  store i32 %180, ptr %36, align 4
  br label %181

181:                                              ; preds = %172, %160
  %182 = load i32, ptr %36, align 4
  %183 = load i32, ptr %32, align 4
  %184 = add nsw i32 %183, %182
  store i32 %184, ptr %32, align 4
  br label %185

185:                                              ; preds = %181, %143
  br label %186

186:                                              ; preds = %185, %140
  %187 = load ptr, ptr %26, align 8
  %188 = load i32, ptr %32, align 4
  %189 = sext i32 %188 to i64
  %190 = getelementptr inbounds i32, ptr %187, i64 %189
  %191 = load i32, ptr %190, align 4
  %192 = trunc i32 %191 to i8
  %193 = load ptr, ptr %24, align 8
  %194 = getelementptr inbounds i8, ptr %193, i64 0
  store i8 %192, ptr %194, align 1
  br label %195

195:                                              ; preds = %186, %110
  %196 = load ptr, ptr %24, align 8
  %197 = ptrtoint ptr %196 to i64
  %198 = add nsw i64 %197, 1
  %199 = inttoptr i64 %198 to ptr
  store ptr %199, ptr %24, align 8
  br label %200

200:                                              ; preds = %195
  %201 = load i32, ptr %30, align 4
  %202 = add nsw i32 %201, -1
  store i32 %202, ptr %30, align 4
  %203 = icmp sgt i32 %202, 0
  br i1 %203, label %110, label %204, !llvm.loop !58

204:                                              ; preds = %200
  %205 = load ptr, ptr %24, align 8
  %206 = ptrtoint ptr %205 to i64
  %207 = load i32, ptr %23, align 4
  %208 = sext i32 %207 to i64
  %209 = add nsw i64 %206, %208
  %210 = inttoptr i64 %209 to ptr
  store ptr %210, ptr %24, align 8
  %211 = load ptr, ptr %12, align 8
  %212 = ptrtoint ptr %211 to i64
  %213 = load i32, ptr %14, align 4
  %214 = sext i32 %213 to i64
  %215 = add nsw i64 %212, %214
  %216 = inttoptr i64 %215 to ptr
  store ptr %216, ptr %12, align 8
  br label %217

217:                                              ; preds = %204
  %218 = load i32, ptr %16, align 4
  %219 = add nsw i32 %218, -1
  store i32 %219, ptr %16, align 4
  %220 = icmp sgt i32 %219, 0
  br i1 %220, label %108, label %221, !llvm.loop !59

221:                                              ; preds = %217
  br label %287

222:                                              ; preds = %87
  br label %223

223:                                              ; preds = %282, %222
  %224 = load i32, ptr %15, align 4
  store i32 %224, ptr %37, align 4
  br label %225

225:                                              ; preds = %271, %223
  %226 = load i32, ptr %21, align 4
  %227 = sub nsw i32 255, %226
  store i32 %227, ptr %40, align 4
  store i32 255, ptr %38, align 4
  %228 = load i32, ptr %40, align 4
  %229 = sext i32 %228 to i64
  %230 = getelementptr inbounds [256 x [256 x i8]], ptr @mul8table, i64 0, i64 %229
  %231 = load i32, ptr %38, align 4
  %232 = sext i32 %231 to i64
  %233 = getelementptr inbounds [256 x i8], ptr %230, i64 0, i64 %232
  %234 = load i8, ptr %233, align 1
  %235 = zext i8 %234 to i32
  store i32 %235, ptr %38, align 4
  %236 = load i32, ptr %38, align 4
  store i32 %236, ptr %40, align 4
  %237 = load i32, ptr %21, align 4
  %238 = load i32, ptr %38, align 4
  %239 = add nsw i32 %238, %237
  store i32 %239, ptr %38, align 4
  %240 = load ptr, ptr %25, align 8
  %241 = load ptr, ptr %24, align 8
  %242 = getelementptr inbounds i8, ptr %241, i64 0
  %243 = load i8, ptr %242, align 1
  %244 = zext i8 %243 to i64
  %245 = getelementptr inbounds i32, ptr %240, i64 %244
  %246 = load i32, ptr %245, align 4
  %247 = trunc i32 %246 to i8
  %248 = zext i8 %247 to i32
  store i32 %248, ptr %39, align 4
  %249 = load i32, ptr %40, align 4
  %250 = sext i32 %249 to i64
  %251 = getelementptr inbounds [256 x [256 x i8]], ptr @mul8table, i64 0, i64 %250
  %252 = load i32, ptr %39, align 4
  %253 = sext i32 %252 to i64
  %254 = getelementptr inbounds [256 x i8], ptr %251, i64 0, i64 %253
  %255 = load i8, ptr %254, align 1
  %256 = zext i8 %255 to i32
  %257 = load i32, ptr %22, align 4
  %258 = add nsw i32 %256, %257
  store i32 %258, ptr %39, align 4
  %259 = load ptr, ptr %26, align 8
  %260 = load i32, ptr %39, align 4
  %261 = sext i32 %260 to i64
  %262 = getelementptr inbounds i32, ptr %259, i64 %261
  %263 = load i32, ptr %262, align 4
  %264 = trunc i32 %263 to i8
  %265 = load ptr, ptr %24, align 8
  %266 = getelementptr inbounds i8, ptr %265, i64 0
  store i8 %264, ptr %266, align 1
  %267 = load ptr, ptr %24, align 8
  %268 = ptrtoint ptr %267 to i64
  %269 = add nsw i64 %268, 1
  %270 = inttoptr i64 %269 to ptr
  store ptr %270, ptr %24, align 8
  br label %271

271:                                              ; preds = %225
  %272 = load i32, ptr %37, align 4
  %273 = add nsw i32 %272, -1
  store i32 %273, ptr %37, align 4
  %274 = icmp sgt i32 %273, 0
  br i1 %274, label %225, label %275, !llvm.loop !60

275:                                              ; preds = %271
  %276 = load ptr, ptr %24, align 8
  %277 = ptrtoint ptr %276 to i64
  %278 = load i32, ptr %23, align 4
  %279 = sext i32 %278 to i64
  %280 = add nsw i64 %277, %279
  %281 = inttoptr i64 %280 to ptr
  store ptr %281, ptr %24, align 8
  br label %282

282:                                              ; preds = %275
  %283 = load i32, ptr %16, align 4
  %284 = add nsw i32 %283, -1
  store i32 %284, ptr %16, align 4
  %285 = icmp sgt i32 %284, 0
  br i1 %285, label %223, label %286, !llvm.loop !61

286:                                              ; preds = %282
  br label %287

287:                                              ; preds = %286, %221, %77
  ret void
}