; Function Attrs: nofree norecurse nosync nounwind memory(readwrite, inaccessiblemem: none) uwtable
define hidden void @Index8GraySrcOverMaskFill(ptr noundef %0, ptr noundef %1, i32 noundef %2, i32 noundef %3, i32 noundef %4, i32 noundef %5, i32 noundef %6, ptr nocapture noundef readonly %7, ptr nocapture readnone %8, ptr nocapture readnone %9) #0 {
  %11 = getelementptr inbounds i8, ptr %7, i64 32
  %12 = load i32, ptr %11, align 8
  %13 = and i32 %6, 255
  %14 = lshr i32 %6, 8
  %15 = and i32 %14, 255
  %16 = lshr i32 %6, 16
  %17 = and i32 %16, 255
  %18 = lshr i32 %6, 24
  %19 = mul nuw nsw i32 %17, 77
  %20 = mul nuw nsw i32 %15, 150
  %21 = mul nuw nsw i32 %13, 29
  %22 = add nuw nsw i32 %21, 128
  %23 = add nuw nsw i32 %22, %20
  %24 = add nuw nsw i32 %23, %19
  %25 = lshr i32 %24, 8
  %.not = icmp eq i32 %18, 255
  br i1 %.not, label %34, label %26

26:                                               ; preds = %10
  %27 = icmp ult i32 %6, 16777216
  br i1 %27, label %.loopexit, label %28

28:                                               ; preds = %26
  %29 = zext nneg i32 %18 to i64
  %30 = zext nneg i32 %25 to i64
  %31 = getelementptr inbounds [256 x [256 x i8]], ptr @mul8table, i64 0, i64 %29, i64 %30
  %32 = load i8, ptr %31, align 1
  %33 = zext i8 %32 to i32
  br label %34

34:                                               ; preds = %28, %10
  %.080 = phi i32 [ %33, %28 ], [ %25, %10 ]
  %35 = getelementptr inbounds i8, ptr %7, i64 40
  %36 = load ptr, ptr %35, align 8
  %37 = getelementptr inbounds i8, ptr %7, i64 80
  %38 = load ptr, ptr %37, align 8
  %39 = sub nsw i32 %12, %4
  %.not94 = icmp eq ptr %1, null
  br i1 %.not94, label %.preheader, label %44

.preheader:                                       ; preds = %34
  %40 = sext i32 %39 to i64
  %41 = xor i32 %18, 255
  %42 = zext nneg i32 %41 to i64
  %43 = getelementptr inbounds [256 x [256 x i8]], ptr @mul8table, i64 0, i64 %42, i64 255
  br label %103

44:                                               ; preds = %34
  %45 = sext i32 %2 to i64
  %46 = getelementptr inbounds i8, ptr %1, i64 %45
  %47 = sub nsw i32 %3, %4
  %48 = sext i32 %39 to i64
  %49 = zext nneg i32 %18 to i64
  %50 = zext nneg i32 %.080 to i64
  %51 = sext i32 %47 to i64
  br label %52

52:                                               ; preds = %95, %44
  %.085 = phi ptr [ %0, %44 ], [ %97, %95 ]
  %.076 = phi i32 [ %5, %44 ], [ %101, %95 ]
  %.0 = phi ptr [ %46, %44 ], [ %100, %95 ]
  br label %53

53:                                               ; preds = %89, %52
  %.186 = phi ptr [ %.085, %52 ], [ %92, %89 ]
  %.084 = phi i32 [ %4, %52 ], [ %93, %89 ]
  %.1 = phi ptr [ %.0, %52 ], [ %54, %89 ]
  %54 = getelementptr inbounds i8, ptr %.1, i64 1
  %55 = load i8, ptr %.1, align 1
  switch i8 %55, label %56 [
    i8 0, label %89
    i8 -1, label %64
  ]

56:                                               ; preds = %53
  %57 = zext i8 %55 to i64
  %58 = getelementptr inbounds [256 x [256 x i8]], ptr @mul8table, i64 0, i64 %57, i64 %49
  %59 = load i8, ptr %58, align 1
  %60 = zext i8 %59 to i32
  %61 = getelementptr inbounds [256 x [256 x i8]], ptr @mul8table, i64 0, i64 %57, i64 %50
  %62 = load i8, ptr %61, align 1
  %63 = zext i8 %62 to i32
  br label %64

64:                                               ; preds = %53, %56
  %.083 = phi i32 [ %60, %56 ], [ %18, %53 ]
  %.081 = phi i32 [ %63, %56 ], [ %.080, %53 ]
  %.not97 = icmp eq i32 %.083, 255
  br i1 %.not97, label %84, label %65

65:                                               ; preds = %64
  %66 = xor i32 %.083, 255
  %67 = zext nneg i32 %66 to i64
  %68 = getelementptr inbounds [256 x [256 x i8]], ptr @mul8table, i64 0, i64 %67, i64 255
  %69 = load i8, ptr %68, align 1
  %.not98 = icmp eq i8 %69, 0
  br i1 %.not98, label %84, label %70

70:                                               ; preds = %65
  %71 = load i8, ptr %.186, align 1
  %72 = zext i8 %71 to i64
  %73 = getelementptr inbounds i32, ptr %36, i64 %72
  %74 = load i32, ptr %73, align 4
  %75 = and i32 %74, 255
  %.not99 = icmp eq i8 %69, -1
  br i1 %.not99, label %82, label %76

76:                                               ; preds = %70
  %77 = zext i8 %69 to i64
  %78 = zext nneg i32 %75 to i64
  %79 = getelementptr inbounds [256 x [256 x i8]], ptr @mul8table, i64 0, i64 %77, i64 %78
  %80 = load i8, ptr %79, align 1
  %81 = zext i8 %80 to i32
  br label %82

82:                                               ; preds = %76, %70
  %.079 = phi i32 [ %81, %76 ], [ %75, %70 ]
  %83 = add nuw nsw i32 %.079, %.081
  br label %84

84:                                               ; preds = %65, %82, %64
  %.182 = phi i32 [ %83, %82 ], [ %.081, %65 ], [ %.081, %64 ]
  %85 = zext nneg i32 %.182 to i64
  %86 = getelementptr inbounds i32, ptr %38, i64 %85
  %87 = load i32, ptr %86, align 4
  %88 = trunc i32 %87 to i8
  store i8 %88, ptr %.186, align 1
  br label %89

89:                                               ; preds = %53, %84
  %90 = ptrtoint ptr %.186 to i64
  %91 = add nsw i64 %90, 1
  %92 = inttoptr i64 %91 to ptr
  %93 = add nsw i32 %.084, -1
  %94 = icmp sgt i32 %.084, 1
  br i1 %94, label %53, label %95, !llvm.loop !55

95:                                               ; preds = %89
  %96 = add nsw i64 %91, %48
  %97 = inttoptr i64 %96 to ptr
  %98 = ptrtoint ptr %54 to i64
  %99 = add nsw i64 %98, %51
  %100 = inttoptr i64 %99 to ptr
  %101 = add nsw i32 %.076, -1
  %102 = icmp sgt i32 %.076, 1
  br i1 %102, label %52, label %.loopexit, !llvm.loop !56

103:                                              ; preds = %.preheader, %126
  %.2 = phi ptr [ %128, %126 ], [ %0, %.preheader ]
  %.177 = phi i32 [ %129, %126 ], [ %5, %.preheader ]
  br label %104

104:                                              ; preds = %104, %103
  %.3 = phi ptr [ %.2, %103 ], [ %123, %104 ]
  %.078 = phi i32 [ %4, %103 ], [ %124, %104 ]
  %105 = load i8, ptr %43, align 1
  %106 = load i8, ptr %.3, align 1
  %107 = zext i8 %106 to i64
  %108 = getelementptr inbounds i32, ptr %36, i64 %107
  %109 = load i32, ptr %108, align 4
  %110 = and i32 %109, 255
  %111 = zext i8 %105 to i64
  %112 = zext nneg i32 %110 to i64
  %113 = getelementptr inbounds [256 x [256 x i8]], ptr @mul8table, i64 0, i64 %111, i64 %112
  %114 = load i8, ptr %113, align 1
  %115 = zext i8 %114 to i32
  %116 = add nuw nsw i32 %.080, %115
  %117 = zext nneg i32 %116 to i64
  %118 = getelementptr inbounds i32, ptr %38, i64 %117
  %119 = load i32, ptr %118, align 4
  %120 = trunc i32 %119 to i8
  store i8 %120, ptr %.3, align 1
  %121 = ptrtoint ptr %.3 to i64
  %122 = add nsw i64 %121, 1
  %123 = inttoptr i64 %122 to ptr
  %124 = add nsw i32 %.078, -1
  %125 = icmp sgt i32 %.078, 1
  br i1 %125, label %104, label %126, !llvm.loop !57

126:                                              ; preds = %104
  %127 = add nsw i64 %122, %40
  %128 = inttoptr i64 %127 to ptr
  %129 = add nsw i32 %.177, -1
  %130 = icmp sgt i32 %.177, 1
  br i1 %130, label %103, label %.loopexit, !llvm.loop !58

.loopexit:                                        ; preds = %95, %126, %26
  ret void
}